Certificate:
    Data:
        Version: 3 (0x2)
        Serial Number: 878178886 (0x3457f246)
    Signature Algorithm: sha256WithRSAEncryption
        Issuer: C=Unknown, ST=Unknown, L=Unknown, O=Unknown, OU=Unknown, CN=localhost
        Validity
            Not Before: Dec 16 01:51:53 2017 GMT
            Not After : Mar 16 01:51:53 2018 GMT
        Subject: C=Unknown, ST=Unknown, L=Unknown, O=Unknown, OU=Unknown, CN=localhost
        Subject Public Key Info:
            Public Key Algorithm: rsaEncryption
                Public-Key: (2048 bit)
                Modulus:
                    00:85:90:1e:2e:d5:b6:55:c4:56:ac:f7:3d:fb:12:
                    c3:a5:be:30:bb:56:03:e7:b2:cb:0e:e5:27:d2:82:
                    41:11:09:ff:3b:1c:aa:bc:3d:97:0e:2f:c1:b5:bf:
                    de:ed:fe:36:e9:71:d6:3d:3d:ca:00:b0:3b:69:b0:
                    b8:0a:ef:e3:df:91:2e:8f:f7:92:9d:29:0c:5d:15:
                    ad:47:10:db:34:8c:10:01:ad:68:dc:df:80:d5:42:
                    1f:55:be:06:7c:b0:c7:0a:04:87:9a:0a:57:ba:67:
                    43:39:a4:91:09:91:bb:6f:00:dc:ff:ff:4c:53:e0:
                    38:37:de:50:2f:a7:04:e7:c3:bc:a8:56:cd:d6:a7:
                    99:51:43:14:00:32:85:46:3d:92:31:f6:5b:de:74:
                    de:11:4f:23:c2:0d:c6:65:0d:1d:d5:66:d8:bb:79:
                    21:0e:b8:b9:0c:75:6e:7b:35:de:1e:a1:35:00:2e:
                    74:84:7d:a9:b6:55:f8:58:c4:a9:8e:cf:ae:3e:17:
                    12:71:05:b8:8a:50:05:7a:e9:55:db:68:26:e9:02:
                    0c:1d:43:7f:bd:00:ab:4b:6e:cf:3f:1a:68:a8:52:
                    a2:b8:36:19:ca:fb:37:f8:79:54:6a:b4:7b:41:54:
                    af:bc:6a:49:2d:15:6d:14:95:18:b1:37:b2:9a:52:
                    21:47
                Exponent: 65537 (0x10001)
        X509v3 extensions:
            X509v3 Subject Key Identifier: 
                B4:A1:34:DA:34:7F:52:3E:76:AB:81:A4:5C:7E:10:3E:FD:84:9A:3E
    Signature Algorithm: sha256WithRSAEncryption
         6b:9f:d7:de:1b:38:f0:46:7a:40:df:47:b1:1c:5c:05:2c:9a:
         4a:ad:5e:81:84:d1:ac:d4:8d:27:4b:8f:92:2e:02:18:7a:84:
         2f:bb:68:f5:ea:2b:ae:cc:3f:21:f7:d0:47:ea:6d:21:73:db:
         35:f0:e4:27:ba:95:db:2b:99:93:aa:a1:ab:23:bd:78:4f:7c:
         e1:63:cb:2b:e8:2c:fb:e1:ad:af:2d:01:1d:67:d8:7c:bb:82:
         00:30:1a:de:b2:1c:d3:25:b0:de:b1:b5:3c:dc:42:4b:ae:b9:
         1c:e2:f4:dd:45:6c:87:75:d8:9e:bd:1d:27:05:e7:8c:63:ec:
         de:87:aa:95:d7:65:64:80:42:95:88:14:16:6b:43:22:0f:e7:
         c0:06:36:0d:93:14:be:d6:22:24:c0:43:c4:fa:83:bd:6c:5b:
         24:7f:ac:a5:f5:ea:a7:61:fd:5d:67:e3:9d:d1:59:b5:e6:d6:
         9b:20:ca:23:44:44:b7:65:a7:f9:74:34:de:68:87:fd:1c:2f:
         32:d7:48:c0:10:ba:7e:83:06:a4:21:05:d5:6b:b0:9e:9c:dc:
         12:5a:5a:45:b7:84:94:96:a4:29:e6:05:47:1f:f5:a5:93:db:
         21:fc:2e:2a:4d:55:09:54:38:0c:56:ba:59:5b:b2:36:85:c6:
         63:78:93:0c
-----BEGIN CERTIFICATE-----
MIIDezCCAmOgAwIBAgIENFfyRjANBgkqhkiG9w0BAQsFADBuMRAwDgYDVQQGEwdV
bmtub3duMRAwDgYDVQQIEwdVbmtub3duMRAwDgYDVQQHEwdVbmtub3duMRAwDgYD
VQQKEwdVbmtub3duMRAwDgYDVQQLEwdVbmtub3duMRIwEAYDVQQDEwlsb2NhbGhv
c3QwHhcNMTcxMjE2MDE1MTUzWhcNMTgwMzE2MDE1MTUzWjBuMRAwDgYDVQQGEwdV
bmtub3duMRAwDgYDVQQIEwdVbmtub3duMRAwDgYDVQQHEwdVbmtub3duMRAwDgYD
VQQKEwdVbmtub3duMRAwDgYDVQQLEwdVbmtub3duMRIwEAYDVQQDEwlsb2NhbGhv
c3QwggEiMA0GCSqGSIb3DQEBAQUAA4IBDwAwggEKAoIBAQCFkB4u1bZVxFas9z37
EsOlvjC7VgPnsssO5SfSgkERCf87HKq8PZcOL8G1v97t/jbpcdY9PcoAsDtpsLgK
7+PfkS6P95KdKQxdFa1HENs0jBABrWjc34DVQh9VvgZ8sMcKBIeaCle6Z0M5pJEJ
kbtvANz//0xT4Dg33lAvpwTnw7yoVs3Wp5lRQxQAMoVGPZIx9lvedN4RTyPCDcZl
DR3VZti7eSEOuLkMdW57Nd4eoTUALnSEfam2VfhYxKmOz64+FxJxBbiKUAV66VXb
aCbpAgwdQ3+9AKtLbs8/GmioUqK4NhnK+zf4eVRqtHtBVK+8akktFW0UlRixN7Ka
UiFHAgMBAAGjITAfMB0GA1UdDgQWBBS0oTTaNH9SPnargaRcfhA+/YSaPjANBgkq
hkiG9w0BAQsFAAOCAQEAa5/X3hs48EZ6QN9HsRxcBSyaSq1egYTRrNSNJ0uPki4C
GHqEL7to9eorrsw/IffQR+ptIXPbNfDkJ7qV2yuZk6qhqyO9eE984WPLK+gs++Gt
ry0BHWfYfLuCADAa3rIc0yWw3rG1PNxCS665HOL03UVsh3XYnr0dJwXnjGPs3oeq
lddlZIBClYgUFmtDIg/nwAY2DZMUvtYiJMBDxPqDvWxbJH+spfXqp2H9XWfjndFZ
tebWmyDKI0REt2Wn+XQ03miH/RwvMtdIwBC6foMGpCEF1WuwnpzcElpaRbeElJak
KeYFRx/1pZPbIfwuKk1VCVQ4DFa6WVuyNoXGY3iTDA==
-----END CERTIFICATE-----
